MPASM 5.84                          MAIN.ASM   10-13-2020  11:50:29         PAGE  1


LOC  OBJECT CODE     LINE SOURCE TEXT
  VALUE

                      00001 ; TODO INSERT CONFIG CODE HERE USING CONFIG BITS GENERATOR
                      00002 ;proyecto 2 comunicacion serial con computador
                      00003 
                      00004     ; PIC16F887 Configuration Bit Settings
                      00005 
                      00006 ; Assembly source line config statements
                      00007 
                      00008 #include "p16f887.inc"
                      00001         LIST
                      00002 
                      00003 ;==========================================================================
                      00004 ; Build date : Mar 17 2019
                      00005 ;  MPASM PIC16F887 processor include
                      00006 ; 
                      00007 ;  (c) Copyright 1999-2019 Microchip Technology, All rights reserved
                      00008 ;==========================================================================
                      00009 
                      00810         LIST
                      00009 
                      00010 ; CONFIG1
                      00011 ; __config 0xE0D4
2007   20D4           00012  __CONFIG _CONFIG1, _FOSC_INTRC_NOCLKOUT & _WDTE_OFF & _PWRTE_OFF & _MCLRE_OFF & _CP_OFF & _CPD_OFF & _B
                            OREN_OFF & _IESO_OFF & _FCMEN_OFF & _LVP_OFF
                      00013 ; CONFIG2
                      00014 ; __config 0xFFFF
2008   3FFF           00015  __CONFIG _CONFIG2, _BOR4V_BOR40V & _WRT_OFF
                      00016 ;interrupcion del timer 0 para controlar los displays
                      00017  
                      00018 ;constantes     
Warning[207]: Found label after column 1. (VALOR_TMR0)
  00000006            00019  VALOR_TMR0     EQU .6
Warning[207]: Found label after column 1. (VARIA)
                      00020  VARIA UDATA
                      00021 ;------------------------ DATOS O VISUALIZACION DE DATOS-----------------------------------------------
Warning[207]: Found label after column 1. (CONTADOR)
0000                  00022  CONTADOR RES   1;CUENTA EL BYTE QUE SE HA ENVIADO
0001                  00023 MUX     RES     1 ;USADA PARA LA MULTIPLEXACION DE LOS DISPLAYS
0002                  00024 X_LOW   RES     1;  GUARDAR LOS PRIMEROS DOS DIGITOS DE X
0003                  00025 X_MID   RES     1;
0004                  00026 X_HIGH  RES     1 ;GUARDA EL ULTIMO DIGITO
0005                  00027 Y_LOW   RES     1 ; GUARDA LOS PRIMEROS DOS DIGITOS DE Y
0006                  00028 Y_MID   RES     1;
0007                  00029 Y_HIGH  RES     1;  GUARDA EL ULTIMO DIGITO DE Y
0008                  00030 ADC_C0  RES     1 ;VALOR DEL ADC EN EL CANAL 3
0009                  00031 ADC_C1  RES     1 ;VALOR DEL ADC EN EL CANAL 2
000A                  00032 PIXEL_X_LOW RES 1; VALOR DEL PIXEL X PRIMER DIGITO
000B                  00033 PIXEL_X_MID RES 1; DIGITO DE ENMEDIO
Warning[207]: Found label after column 1. (PIXEL_X_HIGH)
000C                  00034  PIXEL_X_HIGH RES    1; VALOR DEL PIXEL X ULTIMO DIGITO
000D                  00035 PIXEL_Y_LOW RES 1; PRIMEROS DOS DIGITOS DEL PIXEL Y
000E                  00036 PIXEL_Y_MID RES 1; DIGITO DE ENMEDIO DEL PIXEL Y
000F                  00037 PIXEL_Y_HIGH RES    1; ULTIMO DIGITO DEL PIXEL Y
                      00038  ;---------------- CONTROL DE FLUJO DEL PROGRAMA--------------------------------------------------
MPASM 5.84                          MAIN.ASM   10-13-2020  11:50:29         PAGE  2


LOC  OBJECT CODE     LINE SOURCE TEXT
  VALUE

Warning[207]: Found label after column 1. (FLAGS)
0010                  00039  FLAGS  RES     1; BIT 0 : USADO PARA INDICAR QUE YA SE CONVIRTIO A BCD EL CANAL 0 ADC
                      00040                  ;  BIT 1: USADO PARA INDICAR QUE YA FUE CONVERTIDO A BCD EL CANAL 1 DEL ADC
                      00041  ;------------ VARIABLES USADAS EN CONVERTIDOR BINARIO A BCD------------------------------
Warning[207]: Found label after column 1. (VALOR_BIN)
0011                  00042  VALOR_BIN  RES 1
Warning[207]: Found label after column 1. (VALOR_DECENAS)
0012                  00043  VALOR_DECENAS RES 1
Warning[207]: Found label after column 1. (VALOR_CENTENAS)
0013                  00044  VALOR_CENTENAS RES 1
Warning[207]: Found label after column 1. (VALOR_UNIDADES)
0014                  00045  VALOR_UNIDADES RES 1
0015                  00046 STATUS_RAM  RES 1
0016                  00047 W_RAM   RES 1   
                      00048 RES_VECT  CODE    0x0000            ; processor reset vector
0000   2???           00049     GOTO    START                   ; go to beginning of program
                      00050 
                      00051 INTER CODE 0x0004
Warning[207]: Found label after column 1. (SAVE)
0004                  00052  SAVE:
0004   00??           00053     MOVWF   W_RAM
0005   0E03           00054     SWAPF   STATUS,W
0006   00??           00055     MOVWF   STATUS_RAM
0007                  00056 ISR:
0007   190B           00057     BTFSC INTCON,2  ;INTERRUPCION DEL TIMER 0
0008   2???           00058     GOTO    INT_TMR0
0009   1B0C           00059     BTFSC   PIR1,6 ;INTERRUPCION DEL ADC
000A   2???           00060     GOTO    INT_ADC
000B   1A8C           00061     BTFSC   PIR1,5   ;INTERRUPCION EUSART RECEIVER
000C   2???           00062     GOTO    INT_RC
                      00063     
000D                  00064 INT_TMR0:
000D   110B           00065     BCF INTCON,2
000E   3006           00066     MOVLW   VALOR_TMR0
000F   0081           00067     MOVWF   TMR0
0010   2???           00068     CALL MOSTRAR_DATOS
0011   0A??           00069     INCF    MUX,F
0012   2???           00070     GOTO LOAD
0013                  00071 INT_ADC:
0013   130C           00072     BCF PIR1,6 ;SE LIMPIA LA BANDERA
0014   081E           00073     MOVF    ADRESH,W
                      00074     
0015   1D1F           00075     BTFSS   ADCON0,2 ;SI ESTE BIT ES CERO SE ESTABA LEYENDO EL CANAL 3
0016   2???           00076     GOTO LECTURA_C1
                      00077     
0017   00??           00078     MOVWF ADC_C1
0018   111F           00079     BCF ADCON0,2 ;SE CAMBIA AL CANAL 1
0019   2???           00080     GOTO    FINAL
                      00081     
Warning[207]: Found label after column 1. (LECTURA_C1)
001A                  00082     LECTURA_C1
001A   00??           00083     MOVWF   ADC_C0
001B   151F           00084     BSF ADCON0,2 ;SE CAMBIA AL CANAL 0
MPASM 5.84                          MAIN.ASM   10-13-2020  11:50:29         PAGE  3


LOC  OBJECT CODE     LINE SOURCE TEXT
  VALUE

                      00085     
Warning[207]: Found label after column 1. (FINAL)
001C                  00086     FINAL
001C   0000           00087     NOP
001D   0000           00088     NOP
001E   0000           00089     NOP
001F   0000           00090     NOP
0020   0000           00091     NOP ;REQUERIMIENTOS DE ADQUISICION
0021   149F           00092     BSF ADCON0,1 ;INICIA LA CONVERSION
0022   2???           00093     GOTO LOAD
0023                  00094 INT_RC:
0023                  00095 LOAD:
0023   0E??           00096     SWAPF   STATUS_RAM,W
0024   0083           00097     MOVWF   STATUS
0025   0E??           00098     SWAPF   W_RAM,F
0026   0E??           00099     SWAPF   W_RAM,W
0027   0009           00100     RETFIE
                      00101     
                      00102  
0028                  00103 TABLA:
0028   390F           00104     ANDLW   B'00001111' ;MASCARA
0029   0782           00105     ADDWF   PCL,F
002A   3408           00106     RETLW        B'00001000' ;0 ANODO
002B   346B           00107     RETLW        B'01101011' ;1
002C   3424           00108     RETLW  B'00100100' ;2
002D   3421           00109     RETLW  B'00100001' ;3
002E   3443           00110     RETLW  B'01000011' ;4
002F   3411           00111     RETLW  B'00010001' ;5
0030   3410           00112     RETLW  B'00010000' ;6
0031   342B           00113     RETLW  B'00101011' ;7
0032   3400           00114     RETLW B'00000000' ;8
0033   3401           00115     RETLW B'00000001' ;9
                      00116     
Warning[207]: Found label after column 1. (MOSTRAR_DATOS)
0034                  00117  MOSTRAR_DATOS:
0034   0186           00118     CLRF    PORTB
0035   08??           00119     MOVF    MUX, W
0036   0782           00120     ADDWF PCL,F
                      00121     
0037   2???           00122     GOTO PRIMERO
0038   2???           00123     GOTO SEGUNDO
0039   2???           00124     GOTO TERCERO
003A   2???           00125     GOTO CUARTO
003B   2???           00126     GOTO QUINTO
003C   2???           00127     GOTO SEXTO
003D   01??           00128     CLRF   MUX
                      00129     
Warning[207]: Found label after column 1. (PRIMERO)
003E                  00130     PRIMERO
003E   08??           00131     MOVF   PIXEL_Y_LOW,W
003F   2???           00132     CALL    TABLA
0040   0088           00133     MOVWF   PORTD
0041   1406           00134     BSF PORTB,0
MPASM 5.84                          MAIN.ASM   10-13-2020  11:50:29         PAGE  4


LOC  OBJECT CODE     LINE SOURCE TEXT
  VALUE

0042   0008           00135     RETURN
                      00136     
Warning[207]: Found label after column 1. (SEGUNDO)
0043                  00137     SEGUNDO
0043   08??           00138     MOVF   PIXEL_Y_MID,W
0044   2???           00139     CALL  TABLA
0045   0088           00140     MOVWF   PORTD
0046   1486           00141     BSF PORTB,1
0047   0008           00142     RETURN
                      00143     
Warning[207]: Found label after column 1. (TERCERO)
0048                  00144     TERCERO
0048   08??           00145     MOVF    PIXEL_Y_HIGH,W
0049   2???           00146     CALL TABLA
004A   0088           00147     MOVWF   PORTD
004B   1506           00148     BSF PORTB,2
004C   0008           00149     RETURN
                      00150     
Warning[207]: Found label after column 1. (CUARTO)
004D                  00151     CUARTO
004D   08??           00152     MOVF    PIXEL_X_LOW,W
004E   2???           00153     CALL TABLA
004F   0088           00154     MOVWF   PORTD
0050   1586           00155     BSF PORTB,3
0051   0008           00156     RETURN
                      00157     
Warning[207]: Found label after column 1. (QUINTO)
0052                  00158     QUINTO
0052   08??           00159     MOVF    PIXEL_X_MID,W
0053   2???           00160     CALL TABLA
0054   0088           00161     MOVWF   PORTD
0055   1606           00162     BSF PORTB,4
0056   0008           00163     RETURN
                      00164     
Warning[207]: Found label after column 1. (SEXTO)
0057                  00165     SEXTO
0057   08??           00166     MOVF    PIXEL_X_HIGH,W
0058   2???           00167     CALL TABLA
0059   0088           00168     MOVWF   PORTD
005A   1686           00169     BSF PORTB,5
005B   0008           00170     RETURN
                      00171     
                      00172 MAIN_PROG CODE                      ; let linker place main program
                      00173 
0000                  00174 START
0000   1703           00175     BSF STATUS,6
0001   1683           00176     BSF STATUS,5 ;BANCO 3
                      00177     
Message[302]: Register in operand not in bank 0.  Ensure that bank bits are correct.
0002   0189           00178     CLRF    ANSELH ;PUERTO B COMO SALIDA DIGITAL
0003   30FF           00179     MOVLW   .255
Message[302]: Register in operand not in bank 0.  Ensure that bank bits are correct.
0004   0088           00180     MOVWF   ANSEL ;PUERTO A Y E COMO ENTRADA DIGITAL
MPASM 5.84                          MAIN.ASM   10-13-2020  11:50:29         PAGE  5


LOC  OBJECT CODE     LINE SOURCE TEXT
  VALUE

                      00181     
0005   1303           00182     BCF STATUS,6 ;BANCO 1
                      00183     
0006   30FF           00184     MOVLW   .255
Message[302]: Register in operand not in bank 0.  Ensure that bank bits are correct.
0007   0085           00185     MOVWF   TRISA
Message[302]: Register in operand not in bank 0.  Ensure that bank bits are correct.
0008   0186           00186     CLRF    TRISB
Message[302]: Register in operand not in bank 0.  Ensure that bank bits are correct.
0009   0188           00187     CLRF    TRISD
                      00188     
000A   3081           00189     MOVLW   B'10000001' ; EN LO QUE INTERESA, EL PRESCALER DEL TMR 0 SE COLOCA EN 1:4 Y LA FUENTE ES EL 
                            OSCILADOR INTERNO
Message[302]: Register in operand not in bank 0.  Ensure that bank bits are correct.
000B   0081           00190     MOVWF   OPTION_REG ;
                      00191     
000C   30E0           00192     MOVLW   B'11100000' ;INTERRUPCIONES GLOBALES, PERIFERICAS ACTIVADAS, TMR0 INT ACTIVADA
000D   008B           00193     MOVWF   INTCON
                      00194     
Message[302]: Register in operand not in bank 0.  Ensure that bank bits are correct.
000E   170C           00195     BSF PIE1,6 ;INTERRUPCION DEL ADC ACTIVADA
                      00196     ;BSF        PIE1,5 ;INTERRUPCION EUSART RECEIVER ACTIVADA
                      00197     
Message[302]: Register in operand not in bank 0.  Ensure that bank bits are correct.
000F   1318           00198     BCF TXSTA,6 ;TRANSMISION DE 8 BITS
Message[302]: Register in operand not in bank 0.  Ensure that bank bits are correct.
0010   1698           00199     BSF TXSTA,5 ;TRANSMISION ACTIVADA
Message[302]: Register in operand not in bank 0.  Ensure that bank bits are correct.
0011   1218           00200     BCF TXSTA,4 ;MODO ASINCRONO
Message[302]: Register in operand not in bank 0.  Ensure that bank bits are correct.
0012   1518           00201     BSF TXSTA,2 ;BAUD RATE DE ALTA VELOCIDAD
                      00202     
0013   3017           00203     MOVLW   .23
Message[302]: Register in operand not in bank 0.  Ensure that bank bits are correct.
0014   0099           00204     MOVWF   SPBRG ;BAUD RATE DE 10417
                      00205     
Message[302]: Register in operand not in bank 0.  Ensure that bank bits are correct.
0015   139F           00206     BCF ADCON1,7 ;JUSTIFICADO A LA DERECHA
Message[302]: Register in operand not in bank 0.  Ensure that bank bits are correct.
0016   129F           00207     BCF ADCON1,5 ; V++ COMO VCC
Message[302]: Register in operand not in bank 0.  Ensure that bank bits are correct.
0017   121F           00208     BCF ADCON1,4   ;V-- COMO VDD
                      00209     
0018   1283           00210     BCF STATUS,5 ;BANCO 0
                      00211     
0019   3041           00212     MOVLW   B'01000001' ;FOSC/8 CANAL AN0  Y SE ENCIENDE
001A   009F           00213     MOVWF   ADCON0
                      00214     
001B   3006           00215     MOVLW   VALOR_TMR0
001C   0081           00216     MOVWF   TMR0    
                      00217     
001D   1798           00218     BSF RCSTA,7 ;SE CONFIGURA EL PUERTO SERIAL
001E   1318           00219     BCF RCSTA,6 ;RECEPCION DE 8 BITS
MPASM 5.84                          MAIN.ASM   10-13-2020  11:50:29         PAGE  6


LOC  OBJECT CODE     LINE SOURCE TEXT
  VALUE

001F   1618           00220     BSF RCSTA,4 ;RECEPCION CONTINUA
                      00221     
0020   149F           00222     BSF ADCON0,1 ;INICIA LA CONVERSION DEL ADC
0021   01??           00223    CLRF PIXEL_X_LOW
0022   01??           00224    CLRF PIXEL_X_MID
0023   01??           00225    CLRF PIXEL_X_HIGH
0024   01??           00226    CLRF PIXEL_Y_LOW
0025   01??           00227    CLRF PIXEL_Y_MID
0026   01??           00228    CLRF PIXEL_Y_HIGH
0027   01??           00229    CLRF MUX
0028   01??           00230    CLRF ADC_C1
0029   01??           00231    CLRF ADC_C0
002A   01??           00232    CLRF CONTADOR
                      00233    
002B                  00234 LOOP:
002B   08??           00235     MOVF    ADC_C0,W
002C   00??           00236     MOVWF   VALOR_BIN
002D   2???           00237     CALL    CONVERTIR_BIN_TO_BCD
002E   08??           00238     MOVF    VALOR_CENTENAS,W
002F   00??           00239     MOVWF  PIXEL_X_HIGH
0030   00??           00240     MOVWF   X_HIGH
0031   08??           00241     MOVF    VALOR_DECENAS,W
0032   00??           00242     MOVWF   PIXEL_X_MID
0033   00??           00243     MOVWF   X_MID
0034   08??           00244     MOVF    VALOR_UNIDADES,W
0035   00??           00245     MOVWF   PIXEL_X_LOW
0036   00??           00246     MOVWF   X_LOW
                      00247     
0037   08??           00248     MOVF    ADC_C1,W
0038   00??           00249     MOVWF   VALOR_BIN
0039   2???           00250     CALL    CONVERTIR_BIN_TO_BCD
003A   08??           00251     MOVF    VALOR_CENTENAS,W
003B   00??           00252     MOVWF  PIXEL_Y_HIGH
003C   00??           00253     MOVWF   Y_HIGH
003D   08??           00254     MOVF    VALOR_DECENAS,W
003E   00??           00255     MOVWF   PIXEL_Y_MID
003F   00??           00256     MOVWF   Y_MID
0040   08??           00257     MOVF    VALOR_UNIDADES,W
0041   00??           00258     MOVWF   PIXEL_Y_LOW
0042   00??           00259     MOVWF   Y_LOW
                      00260     
0043   2???           00261     CALL ENVIAR_DATOS
0044   2???           00262     GOTO LOOP
                      00263 
                      00264     
0045                  00265 ENVIAR_DATOS:
0045   1E0C           00266     BTFSS   PIR1,4 ;SI NO ESTA OCUPADO SE SALTA EL RETURN
0046   0008           00267     RETURN
                      00268    
                      00269     ;----- SE DETERMINA QUE DATO HAY QUE ENVIAR -------------------------------
0047   08??           00270     MOVF    CONTADOR,W
0048   0782           00271     ADDWF   PCL,F
0049   2???           00272     GOTO    UNO
MPASM 5.84                          MAIN.ASM   10-13-2020  11:50:29         PAGE  7


LOC  OBJECT CODE     LINE SOURCE TEXT
  VALUE

004A   2???           00273     GOTO    DOS
004B   2???           00274     GOTO    TRES
004C   2???           00275     GOTO    CUATRO
004D   2???           00276     GOTO    CINCO
004E   2???           00277     GOTO    SEIS
004F   2???           00278     GOTO    SIETE
0050   2???           00279     GOTO    OCHO
0051   01??           00280     CLRF    CONTADOR
Warning[207]: Found label after column 1. (UNO)
0052                  00281     UNO
0052   08??           00282     MOVF    X_HIGH,W
0053   3E30           00283     ADDLW   .48 ;SE PASA DE BCD A ASCII
0054   0099           00284     MOVWF   TXREG
0055   0A??           00285     INCF    CONTADOR,F
0056   0008           00286     RETURN
                      00287     
Warning[207]: Found label after column 1. (DOS)
0057                  00288     DOS
0057   08??           00289      MOVF    X_MID,W
0058   3E30           00290     ADDLW   .48 ;SE PASA DE BCD A ASCII
0059   0099           00291     MOVWF   TXREG
005A   0A??           00292     INCF    CONTADOR,F
005B   0008           00293     RETURN
                      00294     
Warning[207]: Found label after column 1. (TRES)
005C                  00295     TRES
005C   08??           00296     MOVF    X_LOW,W
005D   3E30           00297     ADDLW   .48 ;SE PASA DE BCD A ASCII
005E   0099           00298     MOVWF   TXREG
005F   0A??           00299     INCF    CONTADOR,F
0060   0008           00300     RETURN
                      00301     
Warning[207]: Found label after column 1. (CUATRO)
0061                  00302     CUATRO
0061   302C           00303     MOVLW    .44 ; COMA EN ASCII
0062   0099           00304     MOVWF   TXREG
0063   0A??           00305     INCF    CONTADOR,F
0064   0008           00306     RETURN
                      00307     
Warning[207]: Found label after column 1. (CINCO)
0065                  00308     CINCO
0065   08??           00309      MOVF    Y_HIGH,W
0066   3E30           00310     ADDLW   .48 ;SE PASA DE BCD A ASCII
0067   0099           00311     MOVWF   TXREG
0068   0A??           00312     INCF    CONTADOR,F
0069   0008           00313     RETURN
                      00314     
Warning[207]: Found label after column 1. (SEIS)
006A                  00315     SEIS
006A   08??           00316     MOVF    Y_MID,W
006B   3E30           00317     ADDLW   .48 ;SE PASA DE BCD A ASCII
006C   0099           00318     MOVWF   TXREG
006D   0A??           00319     INCF    CONTADOR,F
MPASM 5.84                          MAIN.ASM   10-13-2020  11:50:29         PAGE  8


LOC  OBJECT CODE     LINE SOURCE TEXT
  VALUE

006E   0008           00320     RETURN
                      00321     
Warning[207]: Found label after column 1. (SIETE)
006F                  00322     SIETE
006F   08??           00323      MOVF    Y_LOW,W
0070   3E30           00324     ADDLW   .48 ;SE PASA DE BCD A ASCII
0071   0099           00325     MOVWF   TXREG
0072   0A??           00326     INCF    CONTADOR,F
0073   0008           00327     RETURN
                      00328     
Warning[207]: Found label after column 1. (OCHO)
0074                  00329     OCHO
0074   300A           00330     MOVLW   .10 ;NUEVA LINEA
0075   0099           00331     MOVWF   TXREG
0076   0A??           00332     INCF    CONTADOR,F
0077   0008           00333     RETURN  
                      00334     
                      00335     
                      00336     
0078                  00337 CONVERTIR_BIN_TO_BCD:
0078   01??           00338     CLRF    VALOR_CENTENAS
0079   01??           00339     CLRF    VALOR_DECENAS
007A   01??           00340     CLRF    VALOR_UNIDADES
                      00341     ;PRIMERO SE INICIA CON LAS CENTENAS
Warning[207]: Found label after column 1. (CENTENAS)
007B                  00342     CENTENAS
007B   3064           00343     MOVLW   .100
007C   02??           00344     SUBWF   VALOR_BIN,W    ;EN EL FSR SE COLOCA LA DIRECCION DEL VALOR A CONVERTIR
007D   1C03           00345     BTFSS   STATUS, C   ; SI EL BIT C ES 1 QUIERE DECIR QUE INDF >= W 
007E   2???           00346     GOTO    DECENAS ;SI EL BIT ES CERO ES EJECUTA ESTO, LO QUE QUIERE DECIR QUE YA EL NUMEOR EN INDF
                      00347     ;ES MENOR O IGUAL A 100
                      00348     
007F   0A??           00349     INCF    VALOR_CENTENAS,F
0080   00??           00350     MOVWF   VALOR_BIN
0081   2???           00351     GOTO CENTENAS ;VUELVE A RESTAR
                      00352     
                      00353     
Warning[207]: Found label after column 1. (DECENAS)
0082                  00354     DECENAS
0082   300A           00355     MOVLW   .10
0083   02??           00356     SUBWF   VALOR_BIN,W
0084   1C03           00357     BTFSS   STATUS,C  ;LO MISMO QUE CON CENTENAS 
0085   2???           00358     GOTO UNIDADES
                      00359     
0086   0A??           00360     INCF    VALOR_DECENAS,F
0087   00??           00361     MOVWF   VALOR_BIN
0088   2???           00362     GOTO DECENAS
                      00363     
Warning[207]: Found label after column 1. (UNIDADES)
0089                  00364     UNIDADES
0089   3001           00365     MOVLW .1
008A   02??           00366     SUBWF   VALOR_BIN,W
008B   1C03           00367     BTFSS   STATUS,C ;MISMA LOGICA QUE ANTERIORMENTE
MPASM 5.84                          MAIN.ASM   10-13-2020  11:50:29         PAGE  9


LOC  OBJECT CODE     LINE SOURCE TEXT
  VALUE

008C   0008           00368     RETURN
                      00369     
008D   0A??           00370     INCF    VALOR_UNIDADES,F
008E   00??           00371     MOVWF VALOR_BIN
008F   2???           00372     GOTO UNIDADES
                      00373     
20D4 3FFF             00374     END
MPASM 5.84                          MAIN.ASM   10-13-2020  11:50:29         PAGE 10


SYMBOL TABLE
  LABEL                             VALUE 

ABDEN                             00000000
ABDOVF                            00000007
ACKDT                             00000005
ACKEN                             00000004
ACKSTAT                           00000006
ADCON0                            0000001F
ADCON1                            0000009F
ADCS0                             00000006
ADCS1                             00000007
ADC_C0                            00000008
ADC_C1                            00000009
ADDEN                             00000003
ADFM                              00000007
ADIE                              00000006
ADIF                              00000006
ADON                              00000000
ADRESH                            0000001E
ADRESL                            0000009E
ANS0                              00000000
ANS1                              00000001
ANS10                             00000002
ANS11                             00000003
ANS12                             00000004
ANS13                             00000005
ANS2                              00000002
ANS3                              00000003
ANS4                              00000004
ANS5                              00000005
ANS6                              00000006
ANS7                              00000007
ANS8                              00000000
ANS9                              00000001
ANSEL                             00000188
ANSELH                            00000189
BAUDCTL                           00000187
BCLIE                             00000003
BCLIF                             00000003
BF                                00000000
BRG0                              00000000
BRG1                              00000001
BRG10                             00000002
BRG11                             00000003
BRG12                             00000004
BRG13                             00000005
BRG14                             00000006
BRG15                             00000007
BRG16                             00000003
BRG2                              00000002
BRG3                              00000003
BRG4                              00000004
BRG5                              00000005
BRG6                              00000006
BRG7                              00000007
MPASM 5.84                          MAIN.ASM   10-13-2020  11:50:29         PAGE 11


SYMBOL TABLE
  LABEL                             VALUE 

BRG8                              00000000
BRG9                              00000001
BRGH                              00000002
C                                 00000000
C1CH0                             00000000
C1CH1                             00000001
C1IE                              00000005
C1IF                              00000005
C1OE                              00000005
C1ON                              00000007
C1OUT                             00000006
C1POL                             00000004
C1R                               00000002
C1RSEL                            00000005
C1SEN                             00000005
C2CH0                             00000000
C2CH1                             00000001
C2IE                              00000006
C2IF                              00000006
C2OE                              00000005
C2ON                              00000007
C2OUT                             00000006
C2POL                             00000004
C2R                               00000002
C2REN                             00000004
C2RSEL                            00000004
C2SYNC                            00000000
CCP1CON                           00000017
CCP1IE                            00000002
CCP1IF                            00000002
CCP1M0                            00000000
CCP1M1                            00000001
CCP1M2                            00000002
CCP1M3                            00000003
CCP1X                             00000005
CCP1Y                             00000004
CCP2CON                           0000001D
CCP2IE                            00000000
CCP2IF                            00000000
CCP2M0                            00000000
CCP2M1                            00000001
CCP2M2                            00000002
CCP2M3                            00000003
CCP2X                             00000005
CCP2Y                             00000004
CCPR1                             00000015
CCPR1H                            00000016
CCPR1L                            00000015
CCPR2                             0000001B
CCPR2H                            0000001C
CCPR2L                            0000001B
CENTENAS                          0000007B
CHS0                              00000002
MPASM 5.84                          MAIN.ASM   10-13-2020  11:50:29         PAGE 12


SYMBOL TABLE
  LABEL                             VALUE 

CHS1                              00000003
CHS2                              00000004
CHS3                              00000005
CINCO                             00000065
CKE                               00000006
CKP                               00000004
CM1CON0                           00000107
CM2CON0                           00000108
CM2CON1                           00000109
CONTADOR                          00000000
CONVERTIR_BIN_TO_BCD              00000078
CREN                              00000004
CSRC                              00000007
CUARTO                            0000004D
CUATRO                            00000061
D                                 00000005
DATA_ADDRESS                      00000005
DC                                00000001
DC1B0                             00000004
DC1B1                             00000005
DC2B0                             00000004
DC2B1                             00000005
DECENAS                           00000082
DOS                               00000057
D_A                               00000005
D_NOT_A                           00000005
ECCPAS                            0000009C
ECCPAS0                           00000004
ECCPAS1                           00000005
ECCPAS2                           00000006
ECCPASE                           00000007
EEADR                             0000010D
EEADRH                            0000010F
EECON1                            0000018C
EECON2                            0000018D
EEDAT                             0000010C
EEDATA                            0000010C
EEDATH                            0000010E
EEIE                              00000004
EEIF                              00000004
EEPGD                             00000007
ENVIAR_DATOS                      00000045
F                                 00000001
FERR                              00000002
FINAL                             0000001C
FLAGS                             00000010
FSR                               00000004
FVREN                             00000000
GCEN                              00000007
GIE                               00000007
GO                                00000001
GO_DONE                           00000001
GO_NOT_DONE                       00000001
MPASM 5.84                          MAIN.ASM   10-13-2020  11:50:29         PAGE 13


SYMBOL TABLE
  LABEL                             VALUE 

HTS                               00000002
I2C_DATA                          00000005
I2C_READ                          00000002
I2C_START                         00000003
I2C_STOP                          00000004
INDF                              00000000
INTCON                            0000000B
INTE                              00000004
INTEDG                            00000006
INTF                              00000001
INT_ADC                           00000013
INT_RC                            00000023
INT_TMR0                          0000000D
IOCB                              00000096
IOCB0                             00000000
IOCB1                             00000001
IOCB2                             00000002
IOCB3                             00000003
IOCB4                             00000004
IOCB5                             00000005
IOCB6                             00000006
IOCB7                             00000007
IRCF0                             00000004
IRCF1                             00000005
IRCF2                             00000006
IRP                               00000007
ISR                               00000007
LECTURA_C1                        0000001A
LOAD                              00000023
LOOP                              0000002B
LTS                               00000001
MC1OUT                            00000007
MC2OUT                            00000006
MOSTRAR_DATOS                     00000034
MSK                               00000093
MSK0                              00000000
MSK1                              00000001
MSK2                              00000002
MSK3                              00000003
MSK4                              00000004
MSK5                              00000005
MSK6                              00000006
MSK7                              00000007
MUX                               00000001
NOT_A                             00000005
NOT_ADDRESS                       00000005
NOT_BO                            00000000
NOT_BOR                           00000000
NOT_DONE                          00000001
NOT_PD                            00000003
NOT_POR                           00000001
NOT_RBPU                          00000007
NOT_RC8                           00000006
MPASM 5.84                          MAIN.ASM   10-13-2020  11:50:29         PAGE 14


SYMBOL TABLE
  LABEL                             VALUE 

NOT_T1SYNC                        00000002
NOT_TO                            00000004
NOT_TX8                           00000006
NOT_W                             00000002
NOT_WRITE                         00000002
OCHO                              00000074
OERR                              00000001
OPTION_REG                        00000081
OSCCON                            0000008F
OSCTUNE                           00000090
OSFIE                             00000007
OSFIF                             00000007
OSTS                              00000003
P                                 00000004
P1M0                              00000006
P1M1                              00000007
PCL                               00000002
PCLATH                            0000000A
PCON                              0000008E
PDC0                              00000000
PDC1                              00000001
PDC2                              00000002
PDC3                              00000003
PDC4                              00000004
PDC5                              00000005
PDC6                              00000006
PEIE                              00000006
PEN                               00000002
PIE1                              0000008C
PIE2                              0000008D
PIR1                              0000000C
PIR2                              0000000D
PIXEL_X_HIGH                      0000000C
PIXEL_X_LOW                       0000000A
PIXEL_X_MID                       0000000B
PIXEL_Y_HIGH                      0000000F
PIXEL_Y_LOW                       0000000D
PIXEL_Y_MID                       0000000E
PORTA                             00000005
PORTB                             00000006
PORTC                             00000007
PORTD                             00000008
PORTE                             00000009
PR2                               00000092
PRIMERO                           0000003E
PRSEN                             00000007
PS0                               00000000
PS1                               00000001
PS2                               00000002
PSA                               00000003
PSSAC0                            00000002
PSSAC1                            00000003
PSSBD0                            00000000
MPASM 5.84                          MAIN.ASM   10-13-2020  11:50:29         PAGE 15


SYMBOL TABLE
  LABEL                             VALUE 

PSSBD1                            00000001
PSTRCON                           0000009D
PULSR                             00000002
PULSS                             00000003
PWM1CON                           0000009B
QUINTO                            00000052
R                                 00000002
RA0                               00000000
RA1                               00000001
RA2                               00000002
RA3                               00000003
RA4                               00000004
RA5                               00000005
RA6                               00000006
RA7                               00000007
RB0                               00000000
RB1                               00000001
RB2                               00000002
RB3                               00000003
RB4                               00000004
RB5                               00000005
RB6                               00000006
RB7                               00000007
RBIE                              00000003
RBIF                              00000000
RC0                               00000000
RC1                               00000001
RC2                               00000002
RC3                               00000003
RC4                               00000004
RC5                               00000005
RC6                               00000006
RC7                               00000007
RC8_9                             00000006
RC9                               00000006
RCD8                              00000000
RCEN                              00000003
RCIDL                             00000006
RCIE                              00000005
RCIF                              00000005
RCREG                             0000001A
RCSTA                             00000018
RD                                00000000
RD0                               00000000
RD1                               00000001
RD2                               00000002
RD3                               00000003
RD4                               00000004
RD5                               00000005
RD6                               00000006
RD7                               00000007
RE0                               00000000
RE1                               00000001
MPASM 5.84                          MAIN.ASM   10-13-2020  11:50:29         PAGE 16


SYMBOL TABLE
  LABEL                             VALUE 

RE2                               00000002
RE3                               00000003
READ_WRITE                        00000002
RP0                               00000005
RP1                               00000006
RSEN                              00000001
RX9                               00000006
RX9D                              00000000
R_NOT_W                           00000002
R_W                               00000002
S                                 00000003
SAVE                              00000004
SBOREN                            00000004
SCKP                              00000004
SCS                               00000000
SEGUNDO                           00000043
SEIS                              0000006A
SEN                               00000000
SENDB                             00000003
SEXTO                             00000057
SIETE                             0000006F
SMP                               00000007
SPBRG                             00000099
SPBRGH                            0000009A
SPEN                              00000007
SR0                               00000006
SR1                               00000007
SRCON                             00000185
SREN                              00000005
SSPADD                            00000093
SSPBUF                            00000013
SSPCON                            00000014
SSPCON2                           00000091
SSPEN                             00000005
SSPIE                             00000003
SSPIF                             00000003
SSPM0                             00000000
SSPM1                             00000001
SSPM2                             00000002
SSPM3                             00000003
SSPMSK                            00000093
SSPOV                             00000006
SSPSTAT                           00000094
START                             00000000
STATUS                            00000003
STATUS_RAM                        00000015
STRA                              00000000
STRB                              00000001
STRC                              00000002
STRD                              00000003
STRSYNC                           00000004
SWDTEN                            00000000
SYNC                              00000004
MPASM 5.84                          MAIN.ASM   10-13-2020  11:50:29         PAGE 17


SYMBOL TABLE
  LABEL                             VALUE 

T0CS                              00000005
T0IE                              00000005
T0IF                              00000002
T0SE                              00000004
T1CKPS0                           00000004
T1CKPS1                           00000005
T1CON                             00000010
T1GINV                            00000007
T1GIV                             00000007
T1GSS                             00000001
T1INSYNC                          00000002
T1OSCEN                           00000003
T1SYNC                            00000002
T2CKPS0                           00000000
T2CKPS1                           00000001
T2CON                             00000012
TABLA                             00000028
TERCERO                           00000048
TMR0                              00000001
TMR0IE                            00000005
TMR0IF                            00000002
TMR1                              0000000E
TMR1CS                            00000001
TMR1GE                            00000006
TMR1H                             0000000F
TMR1IE                            00000000
TMR1IF                            00000000
TMR1L                             0000000E
TMR1ON                            00000000
TMR2                              00000011
TMR2IE                            00000001
TMR2IF                            00000001
TMR2ON                            00000002
TOUTPS0                           00000003
TOUTPS1                           00000004
TOUTPS2                           00000005
TOUTPS3                           00000006
TRES                              0000005C
TRISA                             00000085
TRISA0                            00000000
TRISA1                            00000001
TRISA2                            00000002
TRISA3                            00000003
TRISA4                            00000004
TRISA5                            00000005
TRISA6                            00000006
TRISA7                            00000007
TRISB                             00000086
TRISB0                            00000000
TRISB1                            00000001
TRISB2                            00000002
TRISB3                            00000003
TRISB4                            00000004
MPASM 5.84                          MAIN.ASM   10-13-2020  11:50:29         PAGE 18


SYMBOL TABLE
  LABEL                             VALUE 

TRISB5                            00000005
TRISB6                            00000006
TRISB7                            00000007
TRISC                             00000087
TRISC0                            00000000
TRISC1                            00000001
TRISC2                            00000002
TRISC3                            00000003
TRISC4                            00000004
TRISC5                            00000005
TRISC6                            00000006
TRISC7                            00000007
TRISD                             00000088
TRISD0                            00000000
TRISD1                            00000001
TRISD2                            00000002
TRISD3                            00000003
TRISD4                            00000004
TRISD5                            00000005
TRISD6                            00000006
TRISD7                            00000007
TRISE                             00000089
TRISE0                            00000000
TRISE1                            00000001
TRISE2                            00000002
TRISE3                            00000003
TRMT                              00000001
TUN0                              00000000
TUN1                              00000001
TUN2                              00000002
TUN3                              00000003
TUN4                              00000004
TX8_9                             00000006
TX9                               00000006
TX9D                              00000000
TXD8                              00000000
TXEN                              00000005
TXIE                              00000004
TXIF                              00000004
TXREG                             00000019
TXSTA                             00000098
UA                                00000001
ULPWUE                            00000005
ULPWUIE                           00000002
ULPWUIF                           00000002
UNIDADES                          00000089
UNO                               00000052
VALOR_BIN                         00000011
VALOR_CENTENAS                    00000013
VALOR_DECENAS                     00000012
VALOR_TMR0                        00000006
VALOR_UNIDADES                    00000014
VCFG0                             00000004
MPASM 5.84                          MAIN.ASM   10-13-2020  11:50:29         PAGE 19


SYMBOL TABLE
  LABEL                             VALUE 

VCFG1                             00000005
VR0                               00000000
VR1                               00000001
VR2                               00000002
VR3                               00000003
VRCON                             00000097
VREN                              00000007
VROE                              00000006
VRR                               00000005
VRSS                              00000004
W                                 00000000
WCOL                              00000007
WDTCON                            00000105
WDTPS0                            00000001
WDTPS1                            00000002
WDTPS2                            00000003
WDTPS3                            00000004
WPUB                              00000095
WPUB0                             00000000
WPUB1                             00000001
WPUB2                             00000002
WPUB3                             00000003
WPUB4                             00000004
WPUB5                             00000005
WPUB6                             00000006
WPUB7                             00000007
WR                                00000001
WREN                              00000002
WRERR                             00000003
WUE                               00000001
W_RAM                             00000016
X_HIGH                            00000004
X_LOW                             00000002
X_MID                             00000003
Y_HIGH                            00000007
Y_LOW                             00000005
Y_MID                             00000006
Z                                 00000002
_BOR21V                           00003EFF
_BOR40V                           00003FFF
_BOR4V_BOR21V                     00003EFF
_BOR4V_BOR40V                     00003FFF
_BOREN_NSLEEP                     00003EFF
_BOREN_OFF                        00003CFF
_BOREN_ON                         00003FFF
_BOREN_SBODEN                     00003DFF
_BOR_NSLEEP                       00003EFF
_BOR_OFF                          00003CFF
_BOR_ON                           00003FFF
_BOR_SBODEN                       00003DFF
_CONFIG1                          00002007
_CONFIG2                          00002008
_CPD_OFF                          00003FFF
MPASM 5.84                          MAIN.ASM   10-13-2020  11:50:29         PAGE 20


SYMBOL TABLE
  LABEL                             VALUE 

_CPD_ON                           00003F7F
_CP_OFF                           00003FFF
_CP_ON                            00003FBF
_DEBUG_OFF                        00003FFF
_DEBUG_ON                         00001FFF
_DEVID1                           00002006
_EC_OSC                           00003FFB
_EXTRC                            00003FFF
_EXTRCIO                          00003FFE
_EXTRC_OSC_CLKOUT                 00003FFF
_EXTRC_OSC_NOCLKOUT               00003FFE
_FCMEN_OFF                        000037FF
_FCMEN_ON                         00003FFF
_FOSC_EC                          00003FFB
_FOSC_EXTRC_CLKOUT                00003FFF
_FOSC_EXTRC_NOCLKOUT              00003FFE
_FOSC_HS                          00003FFA
_FOSC_INTRC_CLKOUT                00003FFD
_FOSC_INTRC_NOCLKOUT              00003FFC
_FOSC_LP                          00003FF8
_FOSC_XT                          00003FF9
_HS_OSC                           00003FFA
_IDLOC0                           00002000
_IDLOC1                           00002001
_IDLOC2                           00002002
_IDLOC3                           00002003
_IESO_OFF                         00003BFF
_IESO_ON                          00003FFF
_INTOSC                           00003FFD
_INTOSCIO                         00003FFC
_INTRC_OSC_CLKOUT                 00003FFD
_INTRC_OSC_NOCLKOUT               00003FFC
_LP_OSC                           00003FF8
_LVP_OFF                          00002FFF
_LVP_ON                           00003FFF
_MCLRE_OFF                        00003FDF
_MCLRE_ON                         00003FFF
_PWRTE_OFF                        00003FFF
_PWRTE_ON                         00003FEF
_WDTE_OFF                         00003FF7
_WDTE_ON                          00003FFF
_WDT_OFF                          00003FF7
_WDT_ON                           00003FFF
_WRT_1FOURTH                      00003BFF
_WRT_256                          00003DFF
_WRT_HALF                         000039FF
_WRT_OFF                          00003FFF
_XT_OSC                           00003FF9
__16F887                          00000001

MPASM 5.84                          MAIN.ASM   10-13-2020  11:50:29         PAGE 21





Errors   :     0
Warnings :    30 reported,     0 suppressed
Messages :    15 reported,     0 suppressed

